target datalayout = "e-m:e-p270:32:32-p271:32:32-p272:64:64-i64:64-i128:128-f80:128-n8:16:32:64-S128"
target triple = "x86_64-pc-linux-gnu"

%"struct.boost::charconv::from_chars_result_t" = type { ptr, i32 }

; Function Attrs: inlinehint mustprogress nounwind uwtable
define linkonce_odr hidden noundef x86_fp80 @_ZN5boost8charconv6detail9fast_pathIeoPKeEET_lT0_bT1_(i64 noundef %0, i64 noundef %1, i64 noundef %2, i1 noundef zeroext %3, ptr noundef %4) #2 comdat {
  %6 = alloca i128, align 16
  %7 = alloca i64, align 8
  %8 = alloca i128, align 16
  %9 = alloca i8, align 1
  %10 = alloca ptr, align 8
  %11 = alloca x86_fp80, align 16
  %12 = getelementptr inbounds nuw { i64, i64 }, ptr %6, i32 0, i32 0
  store i64 %1, ptr %12, align 16
  %13 = getelementptr inbounds nuw { i64, i64 }, ptr %6, i32 0, i32 1
  store i64 %2, ptr %13, align 8
  %14 = load i128, ptr %6, align 16, !tbaa !25
  store i64 %0, ptr %7, align 8, !tbaa !11
  store i128 %14, ptr %8, align 16, !tbaa !25
  %15 = zext i1 %3 to i8
  store i8 %15, ptr %9, align 1, !tbaa !9
  store ptr %4, ptr %10, align 8, !tbaa !3
  call void @llvm.lifetime.start.p0(i64 16, ptr %11) #14
  %16 = load i128, ptr %8, align 16, !tbaa !25
  %17 = uitofp i128 %16 to x86_fp80
  store x86_fp80 %17, ptr %11, align 16, !tbaa !27
  %18 = load i64, ptr %7, align 8, !tbaa !11
  %19 = icmp slt i64 %18, 0
  br i1 %19, label %20, label %28

20:                                               ; preds = %5
  %21 = load ptr, ptr %10, align 8, !tbaa !3
  %22 = load i64, ptr %7, align 8, !tbaa !11
  %23 = sub nsw i64 0, %22
  %24 = getelementptr inbounds x86_fp80, ptr %21, i64 %23
  %25 = load x86_fp80, ptr %24, align 16, !tbaa !27
  %26 = load x86_fp80, ptr %11, align 16, !tbaa !27
  %27 = fdiv x86_fp80 %26, %25
  store x86_fp80 %27, ptr %11, align 16, !tbaa !27
  br label %35

28:                                               ; preds = %5
  %29 = load ptr, ptr %10, align 8, !tbaa !3
  %30 = load i64, ptr %7, align 8, !tbaa !11
  %31 = getelementptr inbounds x86_fp80, ptr %29, i64 %30
  %32 = load x86_fp80, ptr %31, align 16, !tbaa !27
  %33 = load x86_fp80, ptr %11, align 16, !tbaa !27
  %34 = fmul x86_fp80 %33, %32
  store x86_fp80 %34, ptr %11, align 16, !tbaa !27
  br label %35

35:                                               ; preds = %28, %20
  %36 = load i8, ptr %9, align 1, !tbaa !9, !range !16, !noundef !17
  %37 = trunc i8 %36 to i1
  br i1 %37, label %38, label %41

38:                                               ; preds = %35
  %39 = load x86_fp80, ptr %11, align 16, !tbaa !27
  %40 = fneg x86_fp80 %39
  store x86_fp80 %40, ptr %11, align 16, !tbaa !27
  br label %41

41:                                               ; preds = %38, %35
  %42 = load x86_fp80, ptr %11, align 16, !tbaa !27
  call void @llvm.lifetime.end.p0(i64 16, ptr %11) #14
  ret x86_fp80 %42
}

; Function Attrs: inlinehint mustprogress nounwind uwtable
define linkonce_odr hidden noundef x86_fp80 @_ZN5boost8charconv6detail15compute_float80IeoEET_lT0_bRSt4errc(i64 noundef %0, i64 noundef %1, i64 noundef %2, i1 noundef zeroext %3, ptr noundef nonnull align 4 dereferenceable(4) %4) #2 comdat {
  %6 = alloca x86_fp80, align 16
  %7 = alloca i128, align 16
  %8 = alloca i64, align 8
  %9 = alloca i128, align 16
  %10 = alloca i8, align 1
  %11 = alloca ptr, align 8
  %12 = alloca i128, align 16
  %13 = getelementptr inbounds nuw { i64, i64 }, ptr %7, i32 0, i32 0
  store i64 %1, ptr %13, align 16
  %14 = getelementptr inbounds nuw { i64, i64 }, ptr %7, i32 0, i32 1
  store i64 %2, ptr %14, align 8
  %15 = load i128, ptr %7, align 16, !tbaa !25
  store i64 %0, ptr %8, align 8, !tbaa !11
  store i128 %15, ptr %9, align 16, !tbaa !25
  %16 = zext i1 %3 to i8
  store i8 %16, ptr %10, align 1, !tbaa !9
  store ptr %4, ptr %11, align 8, !tbaa !3
  %17 = load i64, ptr %8, align 8, !tbaa !11
  %18 = icmp sle i64 -34, %17
  br i1 %18, label %19, label %36

19:                                               ; preds = %5
  %20 = load i64, ptr %8, align 8, !tbaa !11
  %21 = icmp sle i64 %20, 27
  br i1 %21, label %22, label %36

22:                                               ; preds = %19
  %23 = load i128, ptr %9, align 16, !tbaa !25
  %24 = icmp ule i128 %23, 10384593717069655257060992658440192
  br i1 %24, label %25, label %36

25:                                               ; preds = %22
  %26 = load ptr, ptr %11, align 8, !tbaa !3
  store i32 0, ptr %26, align 4, !tbaa !22
  %27 = load i64, ptr %8, align 8, !tbaa !11
  %28 = load i128, ptr %9, align 16, !tbaa !25
  %29 = load i8, ptr %10, align 1, !tbaa !9, !range !16, !noundef !17
  %30 = trunc i8 %29 to i1
  store i128 %28, ptr %12, align 16, !tbaa !25
  %31 = getelementptr inbounds nuw { i64, i64 }, ptr %12, i32 0, i32 0
  %32 = load i64, ptr %31, align 16
  %33 = getelementptr inbounds nuw { i64, i64 }, ptr %12, i32 0, i32 1
  %34 = load i64, ptr %33, align 8
  %35 = call noundef x86_fp80 @_ZN5boost8charconv6detail9fast_pathIeoPKeEET_lT0_bT1_(i64 noundef %27, i64 noundef %32, i64 noundef %34, i1 noundef zeroext %30, ptr noundef @_ZN5boost8charconv6detailL16powers_of_ten_ldE) #14
  store x86_fp80 %35, ptr %6, align 16
  br label %64

36:                                               ; preds = %22, %19, %5
  %37 = load i128, ptr %9, align 16, !tbaa !25
  %38 = icmp eq i128 %37, 0
  br i1 %38, label %39, label %44

39:                                               ; preds = %36
  %40 = load ptr, ptr %11, align 8, !tbaa !3
  store i32 0, ptr %40, align 4, !tbaa !22
  %41 = load i8, ptr %10, align 1, !tbaa !9, !range !16, !noundef !17
  %42 = trunc i8 %41 to i1
  %43 = select i1 %42, x86_fp80 0xK80000000000000000000, x86_fp80 0xK00000000000000000000
  store x86_fp80 %43, ptr %6, align 16
  br label %64

44:                                               ; preds = %36
  %45 = load i64, ptr %8, align 8, !tbaa !11
  %46 = icmp sgt i64 %45, 4932
  br i1 %46, label %47, label %52

47:                                               ; preds = %44
  %48 = load ptr, ptr %11, align 8, !tbaa !3
  store i32 34, ptr %48, align 4, !tbaa !22
  %49 = load i8, ptr %10, align 1, !tbaa !9, !range !16, !noundef !17
  %50 = trunc i8 %49 to i1
  %51 = select i1 %50, x86_fp80 0xKFFFF8000000000000000, x86_fp80 0xK7FFF8000000000000000
  store x86_fp80 %51, ptr %6, align 16
  br label %64

52:                                               ; preds = %44
  %53 = load i64, ptr %8, align 8, !tbaa !11
  %54 = icmp slt i64 %53, -4990
  br i1 %54, label %55, label %60

55:                                               ; preds = %52
  %56 = load ptr, ptr %11, align 8, !tbaa !3
  store i32 34, ptr %56, align 4, !tbaa !22
  %57 = load i8, ptr %10, align 1, !tbaa !9, !range !16, !noundef !17
  %58 = trunc i8 %57 to i1
  %59 = select i1 %58, x86_fp80 0xK80000000000000000000, x86_fp80 0xK00000000000000000000
  store x86_fp80 %59, ptr %6, align 16
  br label %64

60:                                               ; preds = %52
  br label %61

61:                                               ; preds = %60
  br label %62

62:                                               ; preds = %61
  %63 = load ptr, ptr %11, align 8, !tbaa !3
  store i32 95, ptr %63, align 4, !tbaa !22
  store x86_fp80 0xK00000000000000000000, ptr %6, align 16
  br label %64

64:                                               ; preds = %62, %55, %47, %39, %25
  %65 = load x86_fp80, ptr %6, align 16
  ret x86_fp80 %65
}

; Function Attrs: mustprogress nounwind uwtable
define linkonce_odr hidden noundef x86_fp80 @_ZNSt14numeric_limitsIeE13signaling_NaNEv() #0 comdat align 2 {
  ret x86_fp80 0xK7FFFA000000000000000
}

; Function Attrs: mustprogress nounwind uwtable
define linkonce_odr hidden noundef x86_fp80 @_ZNSt14numeric_limitsIeE9quiet_NaNEv() #0 comdat align 2 {
  ret x86_fp80 0xK7FFFC000000000000000
}

; Function Attrs: mustprogress nounwind uwtable
define linkonce_odr hidden noundef x86_fp80 @_ZNSt14numeric_limitsIeE8infinityEv() #0 comdat align 2 {
  ret x86_fp80 0xK7FFF8000000000000000
}

; Function Attrs: mustprogress nounwind uwtable
define { ptr, i32 } @_ZN5boost8charconv17from_chars_erangeEPKcS2_ReNS0_12chars_formatE(ptr noundef %0, ptr noundef %1, ptr noundef nonnull align 16 dereferenceable(16) %2, i32 noundef %3) #0 {
  %5 = alloca %"struct.boost::charconv::from_chars_result_t", align 8
  %6 = alloca ptr, align 8
  %7 = alloca ptr, align 8
  %8 = alloca ptr, align 8
  %9 = alloca i32, align 4
  %10 = alloca i8, align 1
  %11 = alloca i64, align 8
  %12 = alloca i128, align 16
  %13 = alloca i32, align 4
  %14 = alloca i32, align 4
  %15 = alloca x86_fp80, align 16
  %16 = alloca i128, align 16
  %17 = alloca %"struct.boost::charconv::from_chars_result_t", align 8
  store ptr %0, ptr %6, align 8, !tbaa !3
  store ptr %1, ptr %7, align 8, !tbaa !3
  store ptr %2, ptr %8, align 8, !tbaa !3
  store i32 %3, ptr %9, align 4, !tbaa !7
  call void @llvm.lifetime.start.p0(i64 1, ptr %10) #14
  store i8 0, ptr %10, align 1, !tbaa !9
  call void @llvm.lifetime.start.p0(i64 8, ptr %11) #14
  store i64 0, ptr %11, align 8, !tbaa !11
  call void @llvm.lifetime.start.p0(i64 16, ptr %12) #14
  store i128 0, ptr %12, align 16, !tbaa !25
  %18 = load ptr, ptr %6, align 8, !tbaa !3
  %19 = load ptr, ptr %7, align 8, !tbaa !3
  %20 = load i32, ptr %9, align 4, !tbaa !7
  %21 = call { ptr, i32 } @_ZN5boost8charconv6detail6parserIolEENS0_19from_chars_result_tIcEEPKcS6_RbRT_RT0_NS0_12chars_formatE(ptr noundef %18, ptr noundef %19, ptr noundef nonnull align 1 dereferenceable(1) %10, ptr noundef nonnull align 16 dereferenceable(16) %12, ptr noundef nonnull align 8 dereferenceable(8) %11, i32 noundef %20) #14
  %22 = getelementptr inbounds nuw { ptr, i32 }, ptr %5, i32 0, i32 0
  %23 = extractvalue { ptr, i32 } %21, 0
  store ptr %23, ptr %22, align 8
  %24 = getelementptr inbounds nuw { ptr, i32 }, ptr %5, i32 0, i32 1
  %25 = extractvalue { ptr, i32 } %21, 1
  store i32 %25, ptr %24, align 8
  %26 = getelementptr inbounds nuw %"struct.boost::charconv::from_chars_result_t", ptr %5, i32 0, i32 1
  %27 = load i32, ptr %26, align 8, !tbaa !13
  %28 = icmp eq i32 %27, 75
  br i1 %28, label %29, label %38

29:                                               ; preds = %4
  %30 = getelementptr inbounds nuw %"struct.boost::charconv::from_chars_result_t", ptr %5, i32 0, i32 1
  store i32 0, ptr %30, align 8, !tbaa !13
  %31 = load i8, ptr %10, align 1, !tbaa !9, !range !16, !noundef !17
  %32 = trunc i8 %31 to i1
  %33 = call noundef x86_fp80 @_ZNSt14numeric_limitsIeE8infinityEv() #14
  %34 = fneg x86_fp80 %33
  %35 = call noundef x86_fp80 @_ZNSt14numeric_limitsIeE8infinityEv() #14
  %36 = select i1 %32, x86_fp80 %34, x86_fp80 %35
  %37 = load ptr, ptr %8, align 8, !tbaa !3
  store x86_fp80 %36, ptr %37, align 16, !tbaa !27
  store i32 1, ptr %13, align 4
  br label %116

38:                                               ; preds = %4
  %39 = getelementptr inbounds nuw %"struct.boost::charconv::from_chars_result_t", ptr %5, i32 0, i32 1
  %40 = load i32, ptr %39, align 8, !tbaa !13
  %41 = icmp eq i32 %40, 95
  br i1 %41, label %42, label %63

42:                                               ; preds = %38
  %43 = getelementptr inbounds nuw %"struct.boost::charconv::from_chars_result_t", ptr %5, i32 0, i32 1
  store i32 0, ptr %43, align 8, !tbaa !13
  %44 = load i128, ptr %12, align 16, !tbaa !25
  %45 = icmp eq i128 %44, 0
  br i1 %45, label %46, label %54

46:                                               ; preds = %42
  %47 = load i8, ptr %10, align 1, !tbaa !9, !range !16, !noundef !17
  %48 = trunc i8 %47 to i1
  %49 = call noundef x86_fp80 @_ZNSt14numeric_limitsIeE9quiet_NaNEv() #14
  %50 = fneg x86_fp80 %49
  %51 = call noundef x86_fp80 @_ZNSt14numeric_limitsIeE9quiet_NaNEv() #14
  %52 = select i1 %48, x86_fp80 %50, x86_fp80 %51
  %53 = load ptr, ptr %8, align 8, !tbaa !3
  store x86_fp80 %52, ptr %53, align 16, !tbaa !27
  br label %62

54:                                               ; preds = %42
  %55 = load i8, ptr %10, align 1, !tbaa !9, !range !16, !noundef !17
  %56 = trunc i8 %55 to i1
  %57 = call noundef x86_fp80 @_ZNSt14numeric_limitsIeE13signaling_NaNEv() #14
  %58 = fneg x86_fp80 %57
  %59 = call noundef x86_fp80 @_ZNSt14numeric_limitsIeE13signaling_NaNEv() #14
  %60 = select i1 %56, x86_fp80 %58, x86_fp80 %59
  %61 = load ptr, ptr %8, align 8, !tbaa !3
  store x86_fp80 %60, ptr %61, align 16, !tbaa !27
  br label %62

62:                                               ; preds = %54, %46
  store i32 1, ptr %13, align 4
  br label %116

63:                                               ; preds = %38
  %64 = getelementptr inbounds nuw %"struct.boost::charconv::from_chars_result_t", ptr %5, i32 0, i32 1
  %65 = load i32, ptr %64, align 8, !tbaa !13
  %66 = icmp ne i32 %65, 0
  br i1 %66, label %67, label %68

67:                                               ; preds = %63
  store i32 1, ptr %13, align 4
  br label %116

68:                                               ; preds = %63
  %69 = load i128, ptr %12, align 16, !tbaa !25
  %70 = icmp eq i128 %69, 0
  br i1 %70, label %71, label %76

71:                                               ; preds = %68
  %72 = load i8, ptr %10, align 1, !tbaa !9, !range !16, !noundef !17
  %73 = trunc i8 %72 to i1
  %74 = select i1 %73, x86_fp80 0xK80000000000000000000, x86_fp80 0xK00000000000000000000
  %75 = load ptr, ptr %8, align 8, !tbaa !3
  store x86_fp80 %74, ptr %75, align 16, !tbaa !27
  store i32 1, ptr %13, align 4
  br label %116

76:                                               ; preds = %68
  br label %77

77:                                               ; preds = %76
  br label %78

78:                                               ; preds = %77
  br label %79

79:                                               ; preds = %78
  call void @llvm.lifetime.start.p0(i64 4, ptr %14) #14
  store i32 0, ptr %14, align 4, !tbaa !22
  call void @llvm.lifetime.start.p0(i64 16, ptr %15) #14
  %80 = load i64, ptr %11, align 8, !tbaa !11
  %81 = load i128, ptr %12, align 16, !tbaa !25
  %82 = load i8, ptr %10, align 1, !tbaa !9, !range !16, !noundef !17
  %83 = trunc i8 %82 to i1
  store i128 %81, ptr %16, align 16, !tbaa !25
  %84 = getelementptr inbounds nuw { i64, i64 }, ptr %16, i32 0, i32 0
  %85 = load i64, ptr %84, align 16
  %86 = getelementptr inbounds nuw { i64, i64 }, ptr %16, i32 0, i32 1
  %87 = load i64, ptr %86, align 8
  %88 = call noundef x86_fp80 @_ZN5boost8charconv6detail15compute_float80IeoEET_lT0_bRSt4errc(i64 noundef %80, i64 noundef %85, i64 noundef %87, i1 noundef zeroext %83, ptr noundef nonnull align 4 dereferenceable(4) %14) #14
  store x86_fp80 %88, ptr %15, align 16, !tbaa !27
  %89 = load i32, ptr %14, align 4, !tbaa !22
  %90 = getelementptr inbounds nuw %"struct.boost::charconv::from_chars_result_t", ptr %5, i32 0, i32 1
  store i32 %89, ptr %90, align 8, !tbaa !13
  %91 = getelementptr inbounds nuw %"struct.boost::charconv::from_chars_result_t", ptr %5, i32 0, i32 1
  %92 = load i32, ptr %91, align 8, !tbaa !13
  %93 = icmp eq i32 %92, 0
  br i1 %93, label %98, label %94

94:                                               ; preds = %79
  %95 = getelementptr inbounds nuw %"struct.boost::charconv::from_chars_result_t", ptr %5, i32 0, i32 1
  %96 = load i32, ptr %95, align 8, !tbaa !13
  %97 = icmp eq i32 %96, 34
  br i1 %97, label %98, label %101

98:                                               ; preds = %94, %79
  %99 = load x86_fp80, ptr %15, align 16, !tbaa !27
  %100 = load ptr, ptr %8, align 8, !tbaa !3
  store x86_fp80 %99, ptr %100, align 16, !tbaa !27
  br label %115

101:                                              ; preds = %94
  %102 = getelementptr inbounds nuw %"struct.boost::charconv::from_chars_result_t", ptr %5, i32 0, i32 1
  %103 = load i32, ptr %102, align 8, !tbaa !13
  %104 = icmp eq i32 %103, 95
  br i1 %104, label %105, label %114

105:                                              ; preds = %101
  call void @llvm.lifetime.start.p0(i64 16, ptr %17) #14
  %106 = load ptr, ptr %6, align 8, !tbaa !3
  %107 = load ptr, ptr %7, align 8, !tbaa !3
  %108 = load ptr, ptr %8, align 8, !tbaa !3
  %109 = call { ptr, i32 } @_ZN5boost8charconv6detail17from_chars_strtodIeEENS0_19from_chars_result_tIcEEPKcS6_RT_(ptr noundef %106, ptr noundef %107, ptr noundef nonnull align 16 dereferenceable(16) %108) #14
  %110 = getelementptr inbounds nuw { ptr, i32 }, ptr %17, i32 0, i32 0
  %111 = extractvalue { ptr, i32 } %109, 0
  store ptr %111, ptr %110, align 8
  %112 = getelementptr inbounds nuw { ptr, i32 }, ptr %17, i32 0, i32 1
  %113 = extractvalue { ptr, i32 } %109, 1
  store i32 %113, ptr %112, align 8
  call void @llvm.memcpy.p0.p0.i64(ptr align 8 %5, ptr align 8 %17, i64 16, i1 false), !tbaa.struct !21
  call void @llvm.lifetime.end.p0(i64 16, ptr %17) #14
  br label %114

114:                                              ; preds = %105, %101
  br label %115

115:                                              ; preds = %114, %98
  store i32 1, ptr %13, align 4
  call void @llvm.lifetime.end.p0(i64 16, ptr %15) #14
  call void @llvm.lifetime.end.p0(i64 4, ptr %14) #14
  br label %116

116:                                              ; preds = %115, %71, %67, %62, %29
  call void @llvm.lifetime.end.p0(i64 16, ptr %12) #14
  call void @llvm.lifetime.end.p0(i64 8, ptr %11) #14
  call void @llvm.lifetime.end.p0(i64 1, ptr %10) #14
  %117 = load { ptr, i32 }, ptr %5, align 8
  ret { ptr, i32 } %117
}