; Function Attrs: mustprogress nounwind uwtable
define { ptr, i32 } @_ZN5boost8charconv17from_chars_erangeEPKcS2_ReNS0_12chars_formatE(ptr noundef %0, ptr noundef %1, ptr noundef nonnull align 16 dereferenceable(16) %2, i32 noundef %3) local_unnamed_addr #0 {
  %5 = alloca i8, align 1
  %6 = alloca i64, align 8
  %7 = alloca i128, align 16
  call void @llvm.lifetime.start.p0(i64 1, ptr nonnull %5) #13
  store i8 0, ptr %5, align 1, !tbaa !3
  call void @llvm.lifetime.start.p0(i64 8, ptr nonnull %6) #13
  store i64 0, ptr %6, align 8, !tbaa !7
  call void @llvm.lifetime.start.p0(i64 16, ptr nonnull %7) #13
  store i128 0, ptr %7, align 16, !tbaa !15
  %8 = call { ptr, i32 } @_ZN5boost8charconv6detail6parserIolEENS0_19from_chars_result_tIcEEPKcS6_RbRT_RT0_NS0_12chars_formatE(ptr noundef %0, ptr noundef %1, ptr noundef nonnull align 1 dereferenceable(1) %5, ptr noundef nonnull align 16 dereferenceable(16) %7, ptr noundef nonnull align 8 dereferenceable(8) %6, i32 noundef %3) #13
  %9 = extractvalue { ptr, i32 } %8, 1
  switch i32 %9, label %58 [
    i32 75, label %10
    i32 95, label %14
    i32 0, label %21
  ]

10:                                               ; preds = %4
  %11 = load i8, ptr %5, align 1, !tbaa !3, !range !9, !noundef !10
  %12 = trunc nuw i8 %11 to i1
  %13 = select i1 %12, x86_fp80 0xKFFFF8000000000000000, x86_fp80 0xK7FFF8000000000000000
  store x86_fp80 %13, ptr %2, align 16, !tbaa !17
  br label %58

14:                                               ; preds = %4
  %15 = load i128, ptr %7, align 16, !tbaa !15
  %16 = icmp eq i128 %15, 0
  %17 = load i8, ptr %5, align 1, !range !9
  %18 = trunc nuw i8 %17 to i1
  %19 = select i1 %18, x86_fp80 0xKFFFFA000000000000000, x86_fp80 0xK7FFFA000000000000000
  %20 = select i1 %18, x86_fp80 0xKFFFFC000000000000000, x86_fp80 0xK7FFFC000000000000000
  %storemerge = select i1 %16, x86_fp80 %20, x86_fp80 %19
  store x86_fp80 %storemerge, ptr %2, align 16, !tbaa !17
  br label %58

21:                                               ; preds = %4
  %22 = load i128, ptr %7, align 16, !tbaa !15
  %23 = icmp eq i128 %22, 0
  br i1 %23, label %24, label %28

24:                                               ; preds = %21
  %25 = load i8, ptr %5, align 1, !tbaa !3, !range !9, !noundef !10
  %26 = trunc nuw i8 %25 to i1
  %27 = select i1 %26, x86_fp80 0xK80000000000000000000, x86_fp80 0xK00000000000000000000
  store x86_fp80 %27, ptr %2, align 16, !tbaa !17
  br label %58

28:                                               ; preds = %21
  %29 = load i64, ptr %6, align 8, !tbaa !7
  %30 = load i8, ptr %5, align 1, !tbaa !3, !range !9, !noundef !10
  %31 = trunc nuw i8 %30 to i1
  %32 = add i64 %29, 34
  %or.cond.i = icmp ult i64 %32, 62
  %33 = icmp ult i128 %22, 10384593717069655257060992658440193
  %or.cond3.i = and i1 %33, %or.cond.i
  br i1 %or.cond3.i, label %34, label %47

34:                                               ; preds = %28
  %35 = uitofp nneg i128 %22 to x86_fp80
  %36 = icmp slt i64 %29, 0
  br i1 %36, label %37, label %42

37:                                               ; preds = %34
  %38 = sub nsw i64 0, %29
  %39 = getelementptr inbounds x86_fp80, ptr @_ZN5boost8charconv6detailL16powers_of_ten_ldE, i64 %38
  %40 = load x86_fp80, ptr %39, align 16, !tbaa !17
  %41 = fdiv x86_fp80 %35, %40
  br label %_ZN5boost8charconv6detail9fast_pathIeoPKeEET_lT0_bT1_.exit.i

42:                                               ; preds = %34
  %43 = getelementptr inbounds x86_fp80, ptr @_ZN5boost8charconv6detailL16powers_of_ten_ldE, i64 %29
  %44 = load x86_fp80, ptr %43, align 16, !tbaa !17
  %45 = fmul x86_fp80 %44, %35
  br label %_ZN5boost8charconv6detail9fast_pathIeoPKeEET_lT0_bT1_.exit.i

_ZN5boost8charconv6detail9fast_pathIeoPKeEET_lT0_bT1_.exit.i: ; preds = %42, %37
  %.0.i.i = phi x86_fp80 [ %41, %37 ], [ %45, %42 ]
  %46 = fneg x86_fp80 %.0.i.i
  %spec.select.i.i = select i1 %31, x86_fp80 %46, x86_fp80 %.0.i.i
  br label %55

47:                                               ; preds = %28
  %48 = icmp sgt i64 %29, 4932
  br i1 %48, label %49, label %51

49:                                               ; preds = %47
  %50 = select i1 %31, x86_fp80 0xKFFFF8000000000000000, x86_fp80 0xK7FFF8000000000000000
  br label %55

51:                                               ; preds = %47
  %52 = icmp slt i64 %29, -4990
  br i1 %52, label %53, label %_ZN5boost8charconv6detail15compute_float80IeoEET_lT0_bRSt4errc.exit

53:                                               ; preds = %51
  %54 = select i1 %31, x86_fp80 0xK80000000000000000000, x86_fp80 0xK00000000000000000000
  br label %55

55:                                               ; preds = %_ZN5boost8charconv6detail9fast_pathIeoPKeEET_lT0_bT1_.exit.i, %49, %53
  %.0.ph = phi i32 [ 34, %53 ], [ 34, %49 ], [ 0, %_ZN5boost8charconv6detail9fast_pathIeoPKeEET_lT0_bT1_.exit.i ]
  %.0.i.ph = phi x86_fp80 [ %54, %53 ], [ %50, %49 ], [ %spec.select.i.i, %_ZN5boost8charconv6detail9fast_pathIeoPKeEET_lT0_bT1_.exit.i ]
  store x86_fp80 %.0.i.ph, ptr %2, align 16, !tbaa !17
  br label %58

_ZN5boost8charconv6detail15compute_float80IeoEET_lT0_bRSt4errc.exit: ; preds = %51
  %56 = call { ptr, i32 } @_ZN5boost8charconv6detail17from_chars_strtodIeEENS0_19from_chars_result_tIcEEPKcS6_RT_(ptr noundef %0, ptr noundef %1, ptr noundef nonnull align 16 dereferenceable(16) %2) #13
  %57 = extractvalue { ptr, i32 } %56, 1
  br label %58

58:                                               ; preds = %55, %_ZN5boost8charconv6detail15compute_float80IeoEET_lT0_bRSt4errc.exit, %4, %24, %14, %10
  %.pn = phi { ptr, i32 } [ %8, %10 ], [ %8, %14 ], [ %8, %24 ], [ %8, %4 ], [ %8, %55 ], [ %56, %_ZN5boost8charconv6detail15compute_float80IeoEET_lT0_bRSt4errc.exit ]
  %.sroa.3.0 = phi i32 [ 0, %10 ], [ 0, %14 ], [ 0, %24 ], [ %9, %4 ], [ %.0.ph, %55 ], [ %57, %_ZN5boost8charconv6detail15compute_float80IeoEET_lT0_bRSt4errc.exit ]
  call void @llvm.lifetime.end.p0(i64 16, ptr nonnull %7) #13
  call void @llvm.lifetime.end.p0(i64 8, ptr nonnull %6) #13
  call void @llvm.lifetime.end.p0(i64 1, ptr nonnull %5) #13
  %.fca.1.insert = insertvalue { ptr, i32 } %.pn, i32 %.sroa.3.0, 1
  ret { ptr, i32 } %.fca.1.insert
}